(dp1
S'failed'
p2
(lp3
S'1'
asS'source_names'
p4
(lp5
S'openfisca_core/tests/test_countries.py:test_2_parallel_axes_1_constant'
p6
aS'openfisca_core/tests/test_countries.py:test_2_parallel_axes_different_periods'
p7
asS'ids'
p8
(dp9
I1
(S'/home/benjello/openfisca/openfisca-core/openfisca_core/tests/test_countries.py'
S'openfisca_core.tests.test_countries'
S'test_2_parallel_axes_1_constant'
tp10
sI2
(S'/home/benjello/openfisca/openfisca-core/openfisca_core/tests/test_countries.py'
S'openfisca_core.tests.test_countries'
S'test_2_parallel_axes_different_periods'
tp11
ss.